; Function Attrs: mustprogress uwtable
define hidden noundef nonnull align 8 dereferenceable(8) ptr @_ZNK2pb3pbc7displayERSo(ptr noundef nonnull readonly align 8 captures(address) dereferenceable(76) %0, ptr noundef nonnull align 8 dereferenceable(8) %1) unnamed_addr #4 align 2 {
  %3 = getelementptr inbounds nuw i8, ptr %0, i64 32
  %4 = load i32, ptr %3, align 8, !tbaa !20
  %5 = zext i32 %4 to i64
  %.idx = shl nuw nsw i64 %5, 3
  %6 = getelementptr inbounds nuw i8, ptr %0, i64 %.idx
  %.ptr18 = getelementptr inbounds nuw i8, ptr %6, i64 76
  %.not15 = icmp eq i32 %4, 0
  br i1 %.not15, label %._crit_edge, label %.lr.ph.preheader

.lr.ph.preheader:                                 ; preds = %2
  %.ptr = getelementptr inbounds nuw i8, ptr %0, i64 76
  br label %.lr.ph

._crit_edge:                                      ; preds = %_ZN3satlsERSoNS_7literalE.exit, %2
  %7 = tail call noundef nonnull align 8 dereferenceable(8) ptr @_ZSt16__ostream_insertIcSt11char_traitsIcEERSt13basic_ostreamIT_T0_ES6_PKS3_l(ptr noundef nonnull align 8 dereferenceable(8) %1, ptr noundef nonnull @.str.9, i64 noundef 4)
  %8 = getelementptr inbounds nuw i8, ptr %0, i64 60
  %9 = load i32, ptr %8, align 4, !tbaa !25
  %10 = zext i32 %9 to i64
  %11 = tail call noundef nonnull align 8 dereferenceable(8) ptr @_ZNSo9_M_insertImEERSoT_(ptr noundef nonnull align 8 dereferenceable(8) %1, i64 noundef %10)
  ret ptr %11

.lr.ph:                                           ; preds = %.lr.ph.preheader, %_ZN3satlsERSoNS_7literalE.exit
  %.017 = phi i1 [ false, %_ZN3satlsERSoNS_7literalE.exit ], [ true, %.lr.ph.preheader ]
  %.01316 = phi ptr [ %32, %_ZN3satlsERSoNS_7literalE.exit ], [ %.ptr, %.lr.ph.preheader ]
  %.sroa.01.0.copyload = load i32, ptr %.01316, align 4
  %.sroa.5.0..sroa_idx = getelementptr inbounds nuw i8, ptr %.01316, i64 4
  %.sroa.5.0.copyload = load i32, ptr %.sroa.5.0..sroa_idx, align 4
  br i1 %.017, label %14, label %12

12:                                               ; preds = %.lr.ph
  %13 = tail call noundef nonnull align 8 dereferenceable(8) ptr @_ZSt16__ostream_insertIcSt11char_traitsIcEERSt13basic_ostreamIT_T0_ES6_PKS3_l(ptr noundef nonnull align 8 dereferenceable(8) %1, ptr noundef nonnull @.str.6, i64 noundef 2)
  br label %14

14:                                               ; preds = %12, %.lr.ph
  %.not14 = icmp eq i32 %.sroa.01.0.copyload, 1
  br i1 %.not14, label %19, label %15

15:                                               ; preds = %14
  %16 = zext i32 %.sroa.01.0.copyload to i64
  %17 = tail call noundef nonnull align 8 dereferenceable(8) ptr @_ZNSo9_M_insertImEERSoT_(ptr noundef nonnull align 8 dereferenceable(8) %1, i64 noundef %16)
  %18 = tail call noundef nonnull align 8 dereferenceable(8) ptr @_ZSt16__ostream_insertIcSt11char_traitsIcEERSt13basic_ostreamIT_T0_ES6_PKS3_l(ptr noundef nonnull align 8 dereferenceable(8) %17, ptr noundef nonnull @.str.7, i64 noundef 3)
  br label %19

19:                                               ; preds = %15, %14
  %20 = icmp eq i32 %.sroa.5.0.copyload, -2
  br i1 %20, label %21, label %23

21:                                               ; preds = %19
  %22 = tail call noundef nonnull align 8 dereferenceable(8) ptr @_ZSt16__ostream_insertIcSt11char_traitsIcEERSt13basic_ostreamIT_T0_ES6_PKS3_l(ptr noundef nonnull align 8 dereferenceable(8) %1, ptr noundef nonnull @.str.26, i64 noundef 4)
  br label %_ZN3satlsERSoNS_7literalE.exit

23:                                               ; preds = %19
  %24 = and i32 %.sroa.5.0.copyload, 1
  %.not.not.i = icmp eq i32 %24, 0
  %25 = select i1 %.not.not.i, ptr @.str.28, ptr @.str.27
  %26 = zext nneg i32 %24 to i64
  %27 = tail call noundef nonnull align 8 dereferenceable(8) ptr @_ZSt16__ostream_insertIcSt11char_traitsIcEERSt13basic_ostreamIT_T0_ES6_PKS3_l(ptr noundef nonnull align 8 dereferenceable(8) %1, ptr noundef nonnull %25, i64 noundef %26)
  %28 = lshr i32 %.sroa.5.0.copyload, 1
  %29 = zext nneg i32 %28 to i64
  %30 = tail call noundef nonnull align 8 dereferenceable(8) ptr @_ZNSo9_M_insertImEERSoT_(ptr noundef nonnull align 8 dereferenceable(8) %1, i64 noundef %29)
  br label %_ZN3satlsERSoNS_7literalE.exit

_ZN3satlsERSoNS_7literalE.exit:                   ; preds = %21, %23
  %31 = tail call noundef nonnull align 8 dereferenceable(8) ptr @_ZSt16__ostream_insertIcSt11char_traitsIcEERSt13basic_ostreamIT_T0_ES6_PKS3_l(ptr noundef nonnull align 8 dereferenceable(8) %1, ptr noundef nonnull @.str.8, i64 noundef 1)
  %32 = getelementptr inbounds nuw i8, ptr %.01316, i64 8
  %.not = icmp eq ptr %32, %.ptr18
  br i1 %.not, label %._crit_edge, label %.lr.ph
}